; Function Attrs: null_pointer_is_valid sspstrong uwtable
define internal void @bytes_fvalue_set(ptr noundef captures(none) %0, ptr noundef %1) #0 {
  %3 = getelementptr inbounds nuw i8, ptr %0, i64 8
  %4 = load ptr, ptr %3, align 8
  %.not.i = icmp eq ptr %4, null
  br i1 %.not.i, label %bytes_fvalue_free.exit, label %5

5:                                                ; preds = %2
  tail call void @g_bytes_unref(ptr noundef nonnull %4)
  store ptr null, ptr %3, align 8
  br label %bytes_fvalue_free.exit

bytes_fvalue_free.exit:                           ; preds = %2, %5
  %6 = tail call ptr @g_bytes_ref(ptr noundef %1)
  store ptr %6, ptr %3, align 8
  ret void
}